; ModuleID = '39/1594.c'
source_filename = "39/1594.c"
target datalayout = "e-m:e-p270:32:32-p271:32:32-p272:64:64-i64:64-f80:128-n8:16:32:64-S128"
target triple = "x86_64-pc-linux-gnu"

@.str = private unnamed_addr constant [3 x i8] c"%d\00", align 1
@.str.1 = private unnamed_addr constant [18 x i8] c"%s %d %d %c %c %d\00", align 1
@.str.2 = private unnamed_addr constant [10 x i8] c"%s\0A%d\0A%d\0A\00", align 1

; Function Attrs: noinline nounwind uwtable
define dso_local i32 @main() #0 {
  %1 = alloca i32, align 4
  %2 = alloca i32, align 4
  %3 = alloca [100 x i32], align 16
  %4 = alloca [100 x i32], align 16
  %5 = alloca [100 x i32], align 16
  %6 = alloca [100 x [20 x i8]], align 16
  %7 = alloca [100 x i8], align 16
  %8 = alloca [100 x i8], align 16
  %9 = alloca [100 x i32], align 16
  %10 = alloca i32, align 4
  %11 = alloca i32, align 4
  %12 = alloca i32, align 4
  %13 = alloca i32, align 4
  store i32 0, i32* %1, align 4
  store i32 0, i32* %11, align 4
  store i32 0, i32* %13, align 4
  %14 = call i32 (i8*, ...) @__isoc99_scanf(i8* getelementptr inbounds ([3 x i8], [3 x i8]* @.str, i64 0, i64 0), i32* %2)
  store i32 0, i32* %12, align 4
  br label %15

15:                                               ; preds = %43, %0
  %16 = load i32, i32* %12, align 4
  %17 = load i32, i32* %2, align 4
  %18 = icmp slt i32 %16, %17
  br i1 %18, label %19, label %46

19:                                               ; preds = %15
  %20 = load i32, i32* %12, align 4
  %21 = sext i32 %20 to i64
  %22 = getelementptr inbounds [100 x i32], [100 x i32]* %9, i64 0, i64 %21
  store i32 0, i32* %22, align 4
  %23 = load i32, i32* %12, align 4
  %24 = sext i32 %23 to i64
  %25 = getelementptr inbounds [100 x [20 x i8]], [100 x [20 x i8]]* %6, i64 0, i64 %24
  %26 = getelementptr inbounds [20 x i8], [20 x i8]* %25, i64 0, i64 0
  %27 = load i32, i32* %12, align 4
  %28 = sext i32 %27 to i64
  %29 = getelementptr inbounds [100 x i32], [100 x i32]* %3, i64 0, i64 %28
  %30 = load i32, i32* %12, align 4
  %31 = sext i32 %30 to i64
  %32 = getelementptr inbounds [100 x i32], [100 x i32]* %4, i64 0, i64 %31
  %33 = load i32, i32* %12, align 4
  %34 = sext i32 %33 to i64
  %35 = getelementptr inbounds [100 x i8], [100 x i8]* %7, i64 0, i64 %34
  %36 = load i32, i32* %12, align 4
  %37 = sext i32 %36 to i64
  %38 = getelementptr inbounds [100 x i8], [100 x i8]* %8, i64 0, i64 %37
  %39 = load i32, i32* %12, align 4
  %40 = sext i32 %39 to i64
  %41 = getelementptr inbounds [100 x i32], [100 x i32]* %5, i64 0, i64 %40
  %42 = call i32 (i8*, ...) @__isoc99_scanf(i8* getelementptr inbounds ([18 x i8], [18 x i8]* @.str.1, i64 0, i64 0), i8* %26, i32* %29, i32* %32, i8* %35, i8* %38, i32* %41)
  br label %43

43:                                               ; preds = %19
  %44 = load i32, i32* %12, align 4
  %45 = add nsw i32 %44, 1
  store i32 %45, i32* %12, align 4
  br label %15

46:                                               ; preds = %15
  store i32 0, i32* %12, align 4
  br label %47

47:                                               ; preds = %138, %46
  %48 = load i32, i32* %12, align 4
  %49 = load i32, i32* %2, align 4
  %50 = icmp slt i32 %48, %49
  br i1 %50, label %51, label %141

51:                                               ; preds = %47
  %52 = load i32, i32* %12, align 4
  %53 = sext i32 %52 to i64
  %54 = getelementptr inbounds [100 x i32], [100 x i32]* %3, i64 0, i64 %53
  %55 = load i32, i32* %54, align 4
  %56 = icmp sgt i32 %55, 80
  br i1 %56, label %57, label %69

57:                                               ; preds = %51
  %58 = load i32, i32* %12, align 4
  %59 = sext i32 %58 to i64
  %60 = getelementptr inbounds [100 x i32], [100 x i32]* %5, i64 0, i64 %59
  %61 = load i32, i32* %60, align 4
  %62 = icmp ne i32 %61, 0
  br i1 %62, label %63, label %69

63:                                               ; preds = %57
  %64 = load i32, i32* %12, align 4
  %65 = sext i32 %64 to i64
  %66 = getelementptr inbounds [100 x i32], [100 x i32]* %9, i64 0, i64 %65
  %67 = load i32, i32* %66, align 4
  %68 = add nsw i32 %67, 8000
  store i32 %68, i32* %66, align 4
  br label %69

69:                                               ; preds = %63, %57, %51
  %70 = load i32, i32* %12, align 4
  %71 = sext i32 %70 to i64
  %72 = getelementptr inbounds [100 x i32], [100 x i32]* %3, i64 0, i64 %71
  %73 = load i32, i32* %72, align 4
  %74 = icmp sgt i32 %73, 85
  br i1 %74, label %75, label %87

75:                                               ; preds = %69
  %76 = load i32, i32* %12, align 4
  %77 = sext i32 %76 to i64
  %78 = getelementptr inbounds [100 x i32], [100 x i32]* %4, i64 0, i64 %77
  %79 = load i32, i32* %78, align 4
  %80 = icmp sgt i32 %79, 80
  br i1 %80, label %81, label %87

81:                                               ; preds = %75
  %82 = load i32, i32* %12, align 4
  %83 = sext i32 %82 to i64
  %84 = getelementptr inbounds [100 x i32], [100 x i32]* %9, i64 0, i64 %83
  %85 = load i32, i32* %84, align 4
  %86 = add nsw i32 %85, 4000
  store i32 %86, i32* %84, align 4
  br label %87

87:                                               ; preds = %81, %75, %69
  %88 = load i32, i32* %12, align 4
  %89 = sext i32 %88 to i64
  %90 = getelementptr inbounds [100 x i32], [100 x i32]* %3, i64 0, i64 %89
  %91 = load i32, i32* %90, align 4
  %92 = icmp sgt i32 %91, 90
  br i1 %92, label %93, label %99

93:                                               ; preds = %87
  %94 = load i32, i32* %12, align 4
  %95 = sext i32 %94 to i64
  %96 = getelementptr inbounds [100 x i32], [100 x i32]* %9, i64 0, i64 %95
  %97 = load i32, i32* %96, align 4
  %98 = add nsw i32 %97, 2000
  store i32 %98, i32* %96, align 4
  br label %99

99:                                               ; preds = %93, %87
  %100 = load i32, i32* %12, align 4
  %101 = sext i32 %100 to i64
  %102 = getelementptr inbounds [100 x i32], [100 x i32]* %3, i64 0, i64 %101
  %103 = load i32, i32* %102, align 4
  %104 = icmp sgt i32 %103, 85
  br i1 %104, label %105, label %118

105:                                              ; preds = %99
  %106 = load i32, i32* %12, align 4
  %107 = sext i32 %106 to i64
  %108 = getelementptr inbounds [100 x i8], [100 x i8]* %8, i64 0, i64 %107
  %109 = load i8, i8* %108, align 1
  %110 = sext i8 %109 to i32
  %111 = icmp eq i32 %110, 89
  br i1 %111, label %112, label %118

112:                                              ; preds = %105
  %113 = load i32, i32* %12, align 4
  %114 = sext i32 %113 to i64
  %115 = getelementptr inbounds [100 x i32], [100 x i32]* %9, i64 0, i64 %114
  %116 = load i32, i32* %115, align 4
  %117 = add nsw i32 %116, 1000
  store i32 %117, i32* %115, align 4
  br label %118

118:                                              ; preds = %112, %105, %99
  %119 = load i32, i32* %12, align 4
  %120 = sext i32 %119 to i64
  %121 = getelementptr inbounds [100 x i32], [100 x i32]* %4, i64 0, i64 %120
  %122 = load i32, i32* %121, align 4
  %123 = icmp sgt i32 %122, 80
  br i1 %123, label %124, label %137

124:                                              ; preds = %118
  %125 = load i32, i32* %12, align 4
  %126 = sext i32 %125 to i64
  %127 = getelementptr inbounds [100 x i8], [100 x i8]* %7, i64 0, i64 %126
  %128 = load i8, i8* %127, align 1
  %129 = sext i8 %128 to i32
  %130 = icmp eq i32 %129, 89
  br i1 %130, label %131, label %137

131:                                              ; preds = %124
  %132 = load i32, i32* %12, align 4
  %133 = sext i32 %132 to i64
  %134 = getelementptr inbounds [100 x i32], [100 x i32]* %9, i64 0, i64 %133
  %135 = load i32, i32* %134, align 4
  %136 = add nsw i32 %135, 850
  store i32 %136, i32* %134, align 4
  br label %137

137:                                              ; preds = %131, %124, %118
  br label %138

138:                                              ; preds = %137
  %139 = load i32, i32* %12, align 4
  %140 = add nsw i32 %139, 1
  store i32 %140, i32* %12, align 4
  br label %47

141:                                              ; preds = %47
  store i32 0, i32* %12, align 4
  br label %142

142:                                              ; preds = %166, %141
  %143 = load i32, i32* %12, align 4
  %144 = load i32, i32* %2, align 4
  %145 = icmp slt i32 %143, %144
  br i1 %145, label %146, label %169

146:                                              ; preds = %142
  %147 = load i32, i32* %12, align 4
  %148 = sext i32 %147 to i64
  %149 = getelementptr inbounds [100 x i32], [100 x i32]* %9, i64 0, i64 %148
  %150 = load i32, i32* %149, align 4
  %151 = load i32, i32* %13, align 4
  %152 = add nsw i32 %151, %150
  store i32 %152, i32* %13, align 4
  %153 = load i32, i32* %12, align 4
  %154 = sext i32 %153 to i64
  %155 = getelementptr inbounds [100 x i32], [100 x i32]* %9, i64 0, i64 %154
  %156 = load i32, i32* %155, align 4
  %157 = load i32, i32* %11, align 4
  %158 = icmp sgt i32 %156, %157
  br i1 %158, label %159, label %165

159:                                              ; preds = %146
  %160 = load i32, i32* %12, align 4
  %161 = sext i32 %160 to i64
  %162 = getelementptr inbounds [100 x i32], [100 x i32]* %9, i64 0, i64 %161
  %163 = load i32, i32* %162, align 4
  store i32 %163, i32* %11, align 4
  %164 = load i32, i32* %12, align 4
  store i32 %164, i32* %10, align 4
  br label %165

165:                                              ; preds = %159, %146
  br label %166

166:                                              ; preds = %165
  %167 = load i32, i32* %12, align 4
  %168 = add nsw i32 %167, 1
  store i32 %168, i32* %12, align 4
  br label %142

169:                                              ; preds = %142
  %170 = load i32, i32* %10, align 4
  %171 = sext i32 %170 to i64
  %172 = getelementptr inbounds [100 x [20 x i8]], [100 x [20 x i8]]* %6, i64 0, i64 %171
  %173 = getelementptr inbounds [20 x i8], [20 x i8]* %172, i64 0, i64 0
  %174 = load i32, i32* %11, align 4
  %175 = load i32, i32* %13, align 4
  %176 = call i32 (i8*, ...) @printf(i8* getelementptr inbounds ([10 x i8], [10 x i8]* @.str.2, i64 0, i64 0), i8* %173, i32 %174, i32 %175)
  ret i32 0
}

declare dso_local i32 @__isoc99_scanf(i8*, ...) #1

declare dso_local i32 @printf(i8*, ...) #1


!llvm.module.flags = !{!0}
!llvm.ident = !{!1}

!0 = !{i32 1, !"wchar_size", i32 4}
!1 = !{!"clang version 10.0.0-4ubuntu1 "}
